target datalayout = "e-m:e-p270:32:32-p271:32:32-p272:64:64-i64:64-i128:128-f80:128-n8:16:32:64-S128"
target triple = "x86_64-pc-linux-gnu"

%"class.cv::Mat" = type { i32, i32, i32, i32, ptr, ptr, ptr, ptr, ptr, ptr, %"struct.cv::MatSize", %"struct.cv::MatStep" }
%"struct.cv::MatSize" = type { ptr }
%"struct.cv::MatStep" = type { ptr, [2 x i64] }
%"class.cv::AutoBuffer" = type { ptr, i64, [72 x %"class.cv::Rect_"] }
%"class.cv::Rect_" = type { i32, i32, i32, i32 }
%"class.std::vector" = type { %"struct.std::_Vector_base" }
%"struct.std::_Vector_base" = type { %"struct.std::_Vector_base<int, std::allocator<int>>::_Vector_impl" }
%"struct.std::_Vector_base<int, std::allocator<int>>::_Vector_impl" = type { %"struct.std::_Vector_base<int, std::allocator<int>>::_Vector_impl_data" }
%"struct.std::_Vector_base<int, std::allocator<int>>::_Vector_impl_data" = type { ptr, ptr, ptr }
%"class.std::vector.4" = type { %"struct.std::_Vector_base.5" }
%"struct.std::_Vector_base.5" = type { %"struct.std::_Vector_base<std::pair<int, int>, std::allocator<std::pair<int, int>>>::_Vector_impl" }
%"struct.std::_Vector_base<std::pair<int, int>, std::allocator<std::pair<int, int>>>::_Vector_impl" = type { %"struct.std::_Vector_base<std::pair<int, int>, std::allocator<std::pair<int, int>>>::_Vector_impl_data" }
%"struct.std::_Vector_base<std::pair<int, int>, std::allocator<std::pair<int, int>>>::_Vector_impl_data" = type { ptr, ptr, ptr }
%"struct.std::pair" = type { i32, i32 }
%"class.cv::AutoBuffer.9" = type { ptr, i64, [264 x i32] }
%"class.cv::AutoBuffer.10" = type { ptr, i64, [1032 x i8] }
%"class.std::vector.11" = type { %"struct.std::_Vector_base.12" }
%"struct.std::_Vector_base.12" = type { %"struct.std::_Vector_base<cv::AutoBuffer<int>, std::allocator<cv::AutoBuffer<int>>>::_Vector_impl" }
%"struct.std::_Vector_base<cv::AutoBuffer<int>, std::allocator<cv::AutoBuffer<int>>>::_Vector_impl" = type { %"struct.std::_Vector_base<cv::AutoBuffer<int>, std::allocator<cv::AutoBuffer<int>>>::_Vector_impl_data" }
%"struct.std::_Vector_base<cv::AutoBuffer<int>, std::allocator<cv::AutoBuffer<int>>>::_Vector_impl_data" = type { ptr, ptr, ptr }
%"class.cv::ximgproc::ScanSegmentImpl" = type { %"class.cv::ximgproc::ScanSegment", float, i32, i32, i32, i32, i8, i32, i32, i32, float, i32, i32, float, float, i32, i32, %"class.cv::AutoBuffer", %"class.cv::AutoBuffer", %"class.cv::AutoBuffer", [8 x %"class.cv::Point_"], %"class.std::vector", %"class.std::vector.4", %"class.cv::AutoBuffer.9", %"class.cv::AutoBuffer.9", %"class.cv::AutoBuffer.10", %"class.std::vector.11", ptr, [8 x i32], %"struct.std::atomic", %"struct.std::atomic", %"class.cv::Mat", %"class.cv::Mat" }
%"class.cv::ximgproc::ScanSegment" = type { %"class.cv::Algorithm" }
%"class.cv::Algorithm" = type { ptr }
%"class.cv::Point_" = type { i32, i32 }
%"struct.std::atomic" = type { %"struct.std::__atomic_base" }
%"struct.std::__atomic_base" = type { i32 }

; Function Attrs: inlinehint mustprogress nounwind uwtable
define linkonce_odr hidden noundef ptr @_ZN2cv10AutoBufferIhLm1032EE4dataEv(ptr noundef nonnull align 8 dereferenceable(1048) %0) #9 comdat align 2 {
  %2 = alloca ptr, align 8
  store ptr %0, ptr %2, align 8, !tbaa !103
  %3 = load ptr, ptr %2, align 8
  %4 = getelementptr inbounds nuw %"class.cv::AutoBuffer.10", ptr %3, i32 0, i32 0
  %5 = load ptr, ptr %4, align 8, !tbaa !105
  ret ptr %5
}

; Function Attrs: inlinehint mustprogress nounwind uwtable
define linkonce_odr hidden noundef ptr @_ZN2cv10AutoBufferIiLm264EE4dataEv(ptr noundef nonnull align 8 dereferenceable(1072) %0) #9 comdat align 2 {
  %2 = alloca ptr, align 8
  store ptr %0, ptr %2, align 8, !tbaa !100
  %3 = load ptr, ptr %2, align 8
  %4 = getelementptr inbounds nuw %"class.cv::AutoBuffer.9", ptr %3, i32 0, i32 0
  %5 = load ptr, ptr %4, align 8, !tbaa !101
  ret ptr %5
}

; Function Attrs: mustprogress uwtable
define hidden void @_ZN2cv8ximgproc15ScanSegmentImpl3OP2ERKSt4pairIiiE(ptr noundef nonnull align 8 dereferenceable(7144) %0, ptr noundef nonnull align 4 dereferenceable(8) %1) #6 align 2 {
  %3 = alloca ptr, align 8
  %4 = alloca ptr, align 8
  %5 = alloca i32, align 4
  store ptr %0, ptr %3, align 8, !tbaa !20
  store ptr %1, ptr %4, align 8, !tbaa !123
  %6 = load ptr, ptr %3, align 8
  call void @llvm.lifetime.start.p0(i64 4, ptr %5) #3
  %7 = load ptr, ptr %4, align 8, !tbaa !123
  %8 = getelementptr inbounds nuw %"struct.std::pair", ptr %7, i32 0, i32 0
  %9 = load i32, ptr %8, align 4, !tbaa !124
  store i32 %9, ptr %5, align 4, !tbaa !8
  br label %10

10:                                               ; preds = %54, %2
  %11 = load i32, ptr %5, align 4, !tbaa !8
  %12 = load ptr, ptr %4, align 8, !tbaa !123
  %13 = getelementptr inbounds nuw %"struct.std::pair", ptr %12, i32 0, i32 1
  %14 = load i32, ptr %13, align 4, !tbaa !126
  %15 = icmp slt i32 %11, %14
  br i1 %15, label %17, label %16

16:                                               ; preds = %10
  call void @llvm.lifetime.end.p0(i64 4, ptr %5) #3
  br label %57

17:                                               ; preds = %10
  %18 = getelementptr inbounds nuw %"class.cv::ximgproc::ScanSegmentImpl", ptr %6, i32 0, i32 24
  %19 = call noundef ptr @_ZN2cv10AutoBufferIiLm264EE4dataEv(ptr noundef nonnull align 8 dereferenceable(1072) %18)
  %20 = getelementptr inbounds nuw %"class.cv::ximgproc::ScanSegmentImpl", ptr %6, i32 0, i32 23
  %21 = call noundef ptr @_ZN2cv10AutoBufferIiLm264EE4dataEv(ptr noundef nonnull align 8 dereferenceable(1072) %20)
  %22 = load i32, ptr %5, align 4, !tbaa !8
  %23 = sext i32 %22 to i64
  %24 = getelementptr inbounds i32, ptr %21, i64 %23
  %25 = load i32, ptr %24, align 4, !tbaa !8
  %26 = sext i32 %25 to i64
  %27 = getelementptr inbounds i32, ptr %19, i64 %26
  %28 = load i32, ptr %27, align 4, !tbaa !8
  %29 = getelementptr inbounds nuw %"class.cv::ximgproc::ScanSegmentImpl", ptr %6, i32 0, i32 23
  %30 = call noundef ptr @_ZN2cv10AutoBufferIiLm264EE4dataEv(ptr noundef nonnull align 8 dereferenceable(1072) %29)
  %31 = load i32, ptr %5, align 4, !tbaa !8
  %32 = sext i32 %31 to i64
  %33 = getelementptr inbounds i32, ptr %30, i64 %32
  store i32 %28, ptr %33, align 4, !tbaa !8
  %34 = getelementptr inbounds nuw %"class.cv::ximgproc::ScanSegmentImpl", ptr %6, i32 0, i32 23
  %35 = call noundef ptr @_ZN2cv10AutoBufferIiLm264EE4dataEv(ptr noundef nonnull align 8 dereferenceable(1072) %34)
  %36 = load i32, ptr %5, align 4, !tbaa !8
  %37 = sext i32 %36 to i64
  %38 = getelementptr inbounds i32, ptr %35, i64 %37
  %39 = load i32, ptr %38, align 4, !tbaa !8
  %40 = icmp eq i32 %39, 0
  br i1 %40, label %41, label %47

41:                                               ; preds = %17
  %42 = getelementptr inbounds nuw %"class.cv::ximgproc::ScanSegmentImpl", ptr %6, i32 0, i32 25
  %43 = call noundef ptr @_ZN2cv10AutoBufferIhLm1032EE4dataEv(ptr noundef nonnull align 8 dereferenceable(1048) %42)
  %44 = load i32, ptr %5, align 4, !tbaa !8
  %45 = sext i32 %44 to i64
  %46 = getelementptr inbounds i8, ptr %43, i64 %45
  store i8 -1, ptr %46, align 1, !tbaa !110
  br label %53

47:                                               ; preds = %17
  %48 = getelementptr inbounds nuw %"class.cv::ximgproc::ScanSegmentImpl", ptr %6, i32 0, i32 25
  %49 = call noundef ptr @_ZN2cv10AutoBufferIhLm1032EE4dataEv(ptr noundef nonnull align 8 dereferenceable(1048) %48)
  %50 = load i32, ptr %5, align 4, !tbaa !8
  %51 = sext i32 %50 to i64
  %52 = getelementptr inbounds i8, ptr %49, i64 %51
  store i8 0, ptr %52, align 1, !tbaa !110
  br label %53

53:                                               ; preds = %47, %41
  br label %54

54:                                               ; preds = %53
  %55 = load i32, ptr %5, align 4, !tbaa !8
  %56 = add nsw i32 %55, 1
  store i32 %56, ptr %5, align 4, !tbaa !8
  br label %10, !llvm.loop !199

57:                                               ; preds = %16
  ret void
}