; Function Attrs: mustprogress nofree norecurse nosync nounwind memory(readwrite, inaccessiblemem: none) uwtable
define hidden void @_ZN2cv8ximgproc15ScanSegmentImpl3OP2ERKSt4pairIiiE(ptr noundef nonnull readonly align 8 captures(none) dereferenceable(7144) %0, ptr noundef nonnull readonly align 4 captures(none) dereferenceable(8) %1) local_unnamed_addr #17 align 2 {
  %3 = load i32, ptr %1, align 4, !tbaa !98
  %4 = getelementptr inbounds nuw i8, ptr %1, i64 4
  %5 = load i32, ptr %4, align 4, !tbaa !100
  %6 = icmp slt i32 %3, %5
  br i1 %6, label %.lr.ph, label %._crit_edge

.lr.ph:                                           ; preds = %2
  %7 = getelementptr inbounds nuw i8, ptr %0, i64 4760
  %8 = getelementptr inbounds nuw i8, ptr %0, i64 3688
  %9 = getelementptr inbounds nuw i8, ptr %0, i64 5832
  %10 = sext i32 %3 to i64
  br label %11

._crit_edge:                                      ; preds = %11, %2
  ret void

11:                                               ; preds = %.lr.ph, %11
  %indvars.iv = phi i64 [ %10, %.lr.ph ], [ %indvars.iv.next, %11 ]
  %12 = load ptr, ptr %7, align 8, !tbaa !64
  %13 = load ptr, ptr %8, align 8, !tbaa !64
  %14 = getelementptr inbounds i32, ptr %13, i64 %indvars.iv
  %15 = load i32, ptr %14, align 4, !tbaa !76
  %16 = sext i32 %15 to i64
  %17 = getelementptr inbounds i32, ptr %12, i64 %16
  %18 = load i32, ptr %17, align 4, !tbaa !76
  store i32 %18, ptr %14, align 4, !tbaa !76
  %19 = icmp eq i32 %18, 0
  %20 = load ptr, ptr %9, align 8, !tbaa !66
  %21 = getelementptr inbounds i8, ptr %20, i64 %indvars.iv
  %. = sext i1 %19 to i8
  store i8 %., ptr %21, align 1, !tbaa !103
  %indvars.iv.next = add nsw i64 %indvars.iv, 1
  %22 = load i32, ptr %4, align 4, !tbaa !100
  %23 = sext i32 %22 to i64
  %24 = icmp slt i64 %indvars.iv.next, %23
  br i1 %24, label %11, label %._crit_edge, !llvm.loop !167
}